target datalayout = "e-m:e-p270:32:32-p271:32:32-p272:64:64-i64:64-i128:128-f80:128-n8:16:32:64-S128"
target triple = "x86_64-pc-linux-gnu"

%struct.AVCodecContext = type { ptr, i32, i32, ptr, i32, i32, ptr, ptr, ptr, i64, i32, i32, ptr, i32, %struct.AVRational, %struct.AVRational, %struct.AVRational, i32, i32, i32, i32, i32, %struct.AVRational, i32, i32, i32, i32, i32, i32, i32, i32, i32, i32, i32, ptr, ptr, i32, float, float, float, float, float, float, float, float, float, i32, i32, i32, i32, i32, i32, i32, i32, i32, i32, i32, i32, ptr, ptr, ptr, i32, i32, i32, i32, i32, i32, i32, i32, i32, i32, %struct.AVChannelLayout, i32, i32, i32, i32, i32, i32, i32, i32, ptr, i32, i32, i32, float, float, i32, i32, i32, i32, i32, ptr, i64, i64, float, float, i32, i32, ptr, ptr, i32, i32, i32, i32, i32, ptr, ptr, ptr, ptr, i32, i32, [8 x i64], i32, i32, i32, i32, i32, i32, i32, ptr, ptr, i32, i32, i32, i32, i32, i32, i32, i32, i32, i32, ptr, ptr, i32, i32, ptr, ptr, ptr, ptr, i32, i32, i64, i32, i32, i64, ptr, i64, ptr, i32, ptr, i32 }
%struct.AVRational = type { i32, i32 }
%struct.AVChannelLayout = type { i32, i32, %union.anon.1, ptr }
%union.anon.1 = type { i64 }
%struct.VAAPIEncodeContext = type { %struct.FFHWBaseEncodeContext, ptr, i32, i32, i32, i32, i32, i32, ptr, ptr, i32, i32, i32, i32, i32, i32, [4 x %struct._VAConfigAttrib], i32, i32, i32, ptr, ptr, [4 x i32], [4 x ptr], [4 x i64], i32, %struct._VAEncMiscParameterRateControl, %struct._VAEncMiscParameterHRD, %struct._VAEncMiscParameterFrameRate, %struct._VAEncMiscParameterBufferMaxFrameSize, %struct._VAEncMiscParameterBufferQualityLevel, ptr, ptr, i32, i32, i32, i32, i32, i32, [20 x i32], [22 x i32], [21 x i32], [23 x i32], i32, i32, ptr, i32, i32 }
%struct.FFHWBaseEncodeContext = type { ptr, ptr, ptr, i32, i32, i32, i32, i32, i32, ptr, ptr, ptr, ptr, ptr, ptr, ptr, ptr, [2 x ptr], i32, i64, i64, i64, i64, i64, i64, i64, [112 x i64], i32, i32, i32, i32, i32, i32, i32, i32, i32, i32, i32, i32, i32, i32, i32, i32, ptr, i32, ptr, i32, ptr }
%struct._VAConfigAttrib = type { i32, i32 }
%struct._VAEncMiscParameterRateControl = type { i32, i32, i32, i32, i32, i32, %union.anon.2, i32, i32, i32, i32, [4 x i32] }
%union.anon.2 = type { %struct.anon }
%struct.anon = type { i32 }
%struct._VAEncMiscParameterHRD = type { i32, i32, [4 x i32] }
%struct._VAEncMiscParameterFrameRate = type { i32, %union.anon.3, [4 x i32] }
%union.anon.3 = type { %struct.anon.4 }
%struct.anon.4 = type { i32 }
%struct._VAEncMiscParameterBufferMaxFrameSize = type { i32, i32, [4 x i32] }
%struct._VAEncMiscParameterBufferQualityLevel = type { i32, [4 x i32] }
%struct.VAAPIEncodeMPEG2Context = type { %struct.VAAPIEncodeContext, i32, i32, i32, i32, i32, i32, i32, %struct.AVRational, i32, i32, i64, %struct.MPEG2RawSequenceHeader, %struct.MPEG2RawExtensionData, %struct.MPEG2RawExtensionData, %struct.MPEG2RawGroupOfPicturesHeader, %struct.MPEG2RawPictureHeader, %struct.MPEG2RawExtensionData, ptr, %struct.CodedBitstreamFragment }
%struct.MPEG2RawSequenceHeader = type { i8, i16, i16, i8, i8, i32, i16, i8, i8, [64 x i8], i8, [64 x i8] }
%struct.MPEG2RawGroupOfPicturesHeader = type { i8, i32, i8, i8 }
%struct.MPEG2RawPictureHeader = type { i8, i16, i8, i16, i8, i8, i8, i8, %struct.MPEG2RawExtraInformation }
%struct.MPEG2RawExtraInformation = type { ptr, ptr, i64 }
%struct.MPEG2RawExtensionData = type { i8, i8, %union.anon.5 }
%union.anon.5 = type { %struct.MPEG2RawSequenceExtension, [248 x i8] }
%struct.MPEG2RawSequenceExtension = type { i8, i8, i8, i8, i8, i16, i8, i8, i8, i8 }
%struct.CodedBitstreamFragment = type { ptr, i64, i64, ptr, i32, i32, ptr }

@.str.64 = private unnamed_addr constant [34 x i8] c"Failed to add header: type = %d.\0A\00", align 1
@.str.65 = private unnamed_addr constant [32 x i8] c"Failed to write packed header.\0A\00", align 1
@.str.66 = private unnamed_addr constant [35 x i8] c"Access unit too large: %zu < %zu.\0A\00", align 1

; Function Attrs: nounwind uwtable
define internal i32 @vaapi_encode_mpeg2_write_fragment(ptr noundef %0, ptr noundef %1, ptr noundef %2, ptr noundef %3) #3 {
  %5 = alloca i32, align 4
  %6 = alloca ptr, align 8
  %7 = alloca ptr, align 8
  %8 = alloca ptr, align 8
  %9 = alloca ptr, align 8
  %10 = alloca ptr, align 8
  %11 = alloca i32, align 4
  %12 = alloca i32, align 4
  store ptr %0, ptr %6, align 8, !tbaa !4
  store ptr %1, ptr %7, align 8, !tbaa !236
  store ptr %2, ptr %8, align 8, !tbaa !237
  store ptr %3, ptr %9, align 8, !tbaa !239
  call void @llvm.lifetime.start.p0(i64 8, ptr %10) #12
  %13 = load ptr, ptr %6, align 8, !tbaa !4
  %14 = getelementptr inbounds nuw %struct.AVCodecContext, ptr %13, i32 0, i32 6
  %15 = load ptr, ptr %14, align 8, !tbaa !9
  store ptr %15, ptr %10, align 8, !tbaa !31
  call void @llvm.lifetime.start.p0(i64 4, ptr %11) #12
  %16 = load ptr, ptr %10, align 8, !tbaa !31
  %17 = getelementptr inbounds nuw %struct.VAAPIEncodeMPEG2Context, ptr %16, i32 0, i32 18
  %18 = load ptr, ptr %17, align 8, !tbaa !243
  %19 = load ptr, ptr %9, align 8, !tbaa !239
  %20 = call i32 @ff_cbs_write_fragment_data(ptr noundef %18, ptr noundef %19)
  store i32 %20, ptr %11, align 4, !tbaa !70
  %21 = load i32, ptr %11, align 4, !tbaa !70
  %22 = icmp slt i32 %21, 0
  br i1 %22, label %23, label %26

23:                                               ; preds = %4
  %24 = load ptr, ptr %6, align 8, !tbaa !4
  call void (ptr, i32, ptr, ...) @av_log(ptr noundef %24, i32 noundef 16, ptr noundef @.str.65)
  %25 = load i32, ptr %11, align 4, !tbaa !70
  store i32 %25, ptr %5, align 4
  store i32 1, ptr %12, align 4
  br label %67

26:                                               ; preds = %4
  %27 = load ptr, ptr %8, align 8, !tbaa !237
  %28 = load i64, ptr %27, align 8, !tbaa !241
  %29 = load ptr, ptr %9, align 8, !tbaa !239
  %30 = getelementptr inbounds nuw %struct.CodedBitstreamFragment, ptr %29, i32 0, i32 1
  %31 = load i64, ptr %30, align 8, !tbaa !244
  %32 = mul i64 8, %31
  %33 = load ptr, ptr %9, align 8, !tbaa !239
  %34 = getelementptr inbounds nuw %struct.CodedBitstreamFragment, ptr %33, i32 0, i32 2
  %35 = load i64, ptr %34, align 8, !tbaa !245
  %36 = sub i64 %32, %35
  %37 = icmp ult i64 %28, %36
  br i1 %37, label %38, label %50

38:                                               ; preds = %26
  %39 = load ptr, ptr %6, align 8, !tbaa !4
  %40 = load ptr, ptr %8, align 8, !tbaa !237
  %41 = load i64, ptr %40, align 8, !tbaa !241
  %42 = load ptr, ptr %9, align 8, !tbaa !239
  %43 = getelementptr inbounds nuw %struct.CodedBitstreamFragment, ptr %42, i32 0, i32 1
  %44 = load i64, ptr %43, align 8, !tbaa !244
  %45 = mul i64 8, %44
  %46 = load ptr, ptr %9, align 8, !tbaa !239
  %47 = getelementptr inbounds nuw %struct.CodedBitstreamFragment, ptr %46, i32 0, i32 2
  %48 = load i64, ptr %47, align 8, !tbaa !245
  %49 = sub i64 %45, %48
  call void (ptr, i32, ptr, ...) @av_log(ptr noundef %39, i32 noundef 16, ptr noundef @.str.66, i64 noundef %41, i64 noundef %49)
  store i32 -28, ptr %5, align 4
  store i32 1, ptr %12, align 4
  br label %67

50:                                               ; preds = %26
  %51 = load ptr, ptr %7, align 8, !tbaa !236
  %52 = load ptr, ptr %9, align 8, !tbaa !239
  %53 = getelementptr inbounds nuw %struct.CodedBitstreamFragment, ptr %52, i32 0, i32 0
  %54 = load ptr, ptr %53, align 8, !tbaa !246
  %55 = load ptr, ptr %9, align 8, !tbaa !239
  %56 = getelementptr inbounds nuw %struct.CodedBitstreamFragment, ptr %55, i32 0, i32 1
  %57 = load i64, ptr %56, align 8, !tbaa !244
  call void @llvm.memcpy.p0.p0.i64(ptr align 1 %51, ptr align 1 %54, i64 %57, i1 false)
  %58 = load ptr, ptr %9, align 8, !tbaa !239
  %59 = getelementptr inbounds nuw %struct.CodedBitstreamFragment, ptr %58, i32 0, i32 1
  %60 = load i64, ptr %59, align 8, !tbaa !244
  %61 = mul i64 8, %60
  %62 = load ptr, ptr %9, align 8, !tbaa !239
  %63 = getelementptr inbounds nuw %struct.CodedBitstreamFragment, ptr %62, i32 0, i32 2
  %64 = load i64, ptr %63, align 8, !tbaa !245
  %65 = sub i64 %61, %64
  %66 = load ptr, ptr %8, align 8, !tbaa !237
  store i64 %65, ptr %66, align 8, !tbaa !241
  store i32 0, ptr %5, align 4
  store i32 1, ptr %12, align 4
  br label %67

67:                                               ; preds = %50, %38, %23
  call void @llvm.lifetime.end.p0(i64 4, ptr %11) #12
  call void @llvm.lifetime.end.p0(i64 8, ptr %10) #12
  %68 = load i32, ptr %5, align 4
  ret i32 %68
}

; Function Attrs: nounwind uwtable
define internal i32 @vaapi_encode_mpeg2_add_header(ptr noundef %0, ptr noundef %1, i32 noundef %2, ptr noundef %3) #3 {
  %5 = alloca i32, align 4
  %6 = alloca ptr, align 8
  %7 = alloca ptr, align 8
  %8 = alloca i32, align 4
  %9 = alloca ptr, align 8
  %10 = alloca i32, align 4
  %11 = alloca i32, align 4
  store ptr %0, ptr %6, align 8, !tbaa !4
  store ptr %1, ptr %7, align 8, !tbaa !239
  store i32 %2, ptr %8, align 4, !tbaa !70
  store ptr %3, ptr %9, align 8, !tbaa !242
  call void @llvm.lifetime.start.p0(i64 4, ptr %10) #12
  %12 = load ptr, ptr %7, align 8, !tbaa !239
  %13 = load i32, ptr %8, align 4, !tbaa !70
  %14 = load ptr, ptr %9, align 8, !tbaa !242
  %15 = call i32 @ff_cbs_insert_unit_content(ptr noundef %12, i32 noundef -1, i32 noundef %13, ptr noundef %14, ptr noundef null)
  store i32 %15, ptr %10, align 4, !tbaa !70
  %16 = load i32, ptr %10, align 4, !tbaa !70
  %17 = icmp slt i32 %16, 0
  br i1 %17, label %18, label %22

18:                                               ; preds = %4
  %19 = load ptr, ptr %6, align 8, !tbaa !4
  %20 = load i32, ptr %8, align 4, !tbaa !70
  call void (ptr, i32, ptr, ...) @av_log(ptr noundef %19, i32 noundef 16, ptr noundef @.str.64, i32 noundef %20)
  %21 = load i32, ptr %10, align 4, !tbaa !70
  store i32 %21, ptr %5, align 4
  store i32 1, ptr %11, align 4
  br label %23

22:                                               ; preds = %4
  store i32 0, ptr %5, align 4
  store i32 1, ptr %11, align 4
  br label %23

23:                                               ; preds = %22, %18
  call void @llvm.lifetime.end.p0(i64 4, ptr %10) #12
  %24 = load i32, ptr %5, align 4
  ret i32 %24
}

; Function Attrs: nounwind uwtable
define internal i32 @vaapi_encode_mpeg2_write_sequence_header(ptr noundef %0, ptr noundef %1, ptr noundef %2) #3 {
  %4 = alloca ptr, align 8
  %5 = alloca ptr, align 8
  %6 = alloca ptr, align 8
  %7 = alloca ptr, align 8
  %8 = alloca ptr, align 8
  %9 = alloca i32, align 4
  store ptr %0, ptr %4, align 8, !tbaa !4
  store ptr %1, ptr %5, align 8, !tbaa !236
  store ptr %2, ptr %6, align 8, !tbaa !237
  call void @llvm.lifetime.start.p0(i64 8, ptr %7) #12
  %10 = load ptr, ptr %4, align 8, !tbaa !4
  %11 = getelementptr inbounds nuw %struct.AVCodecContext, ptr %10, i32 0, i32 6
  %12 = load ptr, ptr %11, align 8, !tbaa !9
  store ptr %12, ptr %7, align 8, !tbaa !31
  call void @llvm.lifetime.start.p0(i64 8, ptr %8) #12
  %13 = load ptr, ptr %7, align 8, !tbaa !31
  %14 = getelementptr inbounds nuw %struct.VAAPIEncodeMPEG2Context, ptr %13, i32 0, i32 19
  store ptr %14, ptr %8, align 8, !tbaa !239
  call void @llvm.lifetime.start.p0(i64 4, ptr %9) #12
  %15 = load ptr, ptr %4, align 8, !tbaa !4
  %16 = load ptr, ptr %8, align 8, !tbaa !239
  %17 = load ptr, ptr %7, align 8, !tbaa !31
  %18 = getelementptr inbounds nuw %struct.VAAPIEncodeMPEG2Context, ptr %17, i32 0, i32 12
  %19 = call i32 @vaapi_encode_mpeg2_add_header(ptr noundef %15, ptr noundef %16, i32 noundef 179, ptr noundef %18)
  store i32 %19, ptr %9, align 4, !tbaa !70
  %20 = load i32, ptr %9, align 4, !tbaa !70
  %21 = icmp slt i32 %20, 0
  br i1 %21, label %22, label %23

22:                                               ; preds = %3
  br label %56

23:                                               ; preds = %3
  %24 = load ptr, ptr %4, align 8, !tbaa !4
  %25 = load ptr, ptr %8, align 8, !tbaa !239
  %26 = load ptr, ptr %7, align 8, !tbaa !31
  %27 = getelementptr inbounds nuw %struct.VAAPIEncodeMPEG2Context, ptr %26, i32 0, i32 13
  %28 = call i32 @vaapi_encode_mpeg2_add_header(ptr noundef %24, ptr noundef %25, i32 noundef 181, ptr noundef %27)
  store i32 %28, ptr %9, align 4, !tbaa !70
  %29 = load i32, ptr %9, align 4, !tbaa !70
  %30 = icmp slt i32 %29, 0
  br i1 %30, label %31, label %32

31:                                               ; preds = %23
  br label %56

32:                                               ; preds = %23
  %33 = load ptr, ptr %4, align 8, !tbaa !4
  %34 = load ptr, ptr %8, align 8, !tbaa !239
  %35 = load ptr, ptr %7, align 8, !tbaa !31
  %36 = getelementptr inbounds nuw %struct.VAAPIEncodeMPEG2Context, ptr %35, i32 0, i32 14
  %37 = call i32 @vaapi_encode_mpeg2_add_header(ptr noundef %33, ptr noundef %34, i32 noundef 181, ptr noundef %36)
  store i32 %37, ptr %9, align 4, !tbaa !70
  %38 = load i32, ptr %9, align 4, !tbaa !70
  %39 = icmp slt i32 %38, 0
  br i1 %39, label %40, label %41

40:                                               ; preds = %32
  br label %56

41:                                               ; preds = %32
  %42 = load ptr, ptr %4, align 8, !tbaa !4
  %43 = load ptr, ptr %8, align 8, !tbaa !239
  %44 = load ptr, ptr %7, align 8, !tbaa !31
  %45 = getelementptr inbounds nuw %struct.VAAPIEncodeMPEG2Context, ptr %44, i32 0, i32 15
  %46 = call i32 @vaapi_encode_mpeg2_add_header(ptr noundef %42, ptr noundef %43, i32 noundef 184, ptr noundef %45)
  store i32 %46, ptr %9, align 4, !tbaa !70
  %47 = load i32, ptr %9, align 4, !tbaa !70
  %48 = icmp slt i32 %47, 0
  br i1 %48, label %49, label %50

49:                                               ; preds = %41
  br label %56

50:                                               ; preds = %41
  %51 = load ptr, ptr %4, align 8, !tbaa !4
  %52 = load ptr, ptr %5, align 8, !tbaa !236
  %53 = load ptr, ptr %6, align 8, !tbaa !237
  %54 = load ptr, ptr %8, align 8, !tbaa !239
  %55 = call i32 @vaapi_encode_mpeg2_write_fragment(ptr noundef %51, ptr noundef %52, ptr noundef %53, ptr noundef %54)
  store i32 %55, ptr %9, align 4, !tbaa !70
  br label %56

56:                                               ; preds = %50, %49, %40, %31, %22
  %57 = load ptr, ptr %8, align 8, !tbaa !239
  call void @ff_cbs_fragment_reset(ptr noundef %57)
  call void @llvm.lifetime.end.p0(i64 4, ptr %9) #12
  call void @llvm.lifetime.end.p0(i64 8, ptr %8) #12
  call void @llvm.lifetime.end.p0(i64 8, ptr %7) #12
  ret i32 0
}