; Function Attrs: nounwind uwtable
define internal noundef i32 @vaapi_encode_mpeg2_write_sequence_header(ptr noundef %0, ptr noundef writeonly captures(none) %1, ptr noundef captures(none) %2) #3 {
  %4 = getelementptr inbounds nuw i8, ptr %0, i64 32
  %5 = load ptr, ptr %4, align 8, !tbaa !4
  %6 = getelementptr inbounds nuw i8, ptr %5, i64 3032
  %7 = getelementptr inbounds nuw i8, ptr %5, i64 2032
  %8 = tail call i32 @ff_cbs_insert_unit_content(ptr noundef nonnull %6, i32 noundef -1, i32 noundef 179, ptr noundef nonnull %7, ptr noundef null) #10
  %9 = icmp slt i32 %8, 0
  br i1 %9, label %vaapi_encode_mpeg2_add_header.exit.thread, label %vaapi_encode_mpeg2_add_header.exit

vaapi_encode_mpeg2_add_header.exit.thread:        ; preds = %3
  tail call void (ptr, i32, ptr, ...) @av_log(ptr noundef nonnull %0, i32 noundef 16, ptr noundef nonnull @.str.64, i32 noundef 179) #10
  br label %vaapi_encode_mpeg2_write_fragment.exit

vaapi_encode_mpeg2_add_header.exit:               ; preds = %3
  %10 = getelementptr inbounds nuw i8, ptr %5, i64 2180
  %11 = tail call i32 @ff_cbs_insert_unit_content(ptr noundef nonnull %6, i32 noundef -1, i32 noundef 181, ptr noundef nonnull %10, ptr noundef null) #10
  %12 = icmp slt i32 %11, 0
  br i1 %12, label %vaapi_encode_mpeg2_add_header.exit23.thread, label %vaapi_encode_mpeg2_add_header.exit23

vaapi_encode_mpeg2_add_header.exit23.thread:      ; preds = %vaapi_encode_mpeg2_add_header.exit
  tail call void (ptr, i32, ptr, ...) @av_log(ptr noundef nonnull %0, i32 noundef 16, ptr noundef nonnull @.str.64, i32 noundef 181) #10
  br label %vaapi_encode_mpeg2_write_fragment.exit

vaapi_encode_mpeg2_add_header.exit23:             ; preds = %vaapi_encode_mpeg2_add_header.exit
  %13 = getelementptr inbounds nuw i8, ptr %5, i64 2442
  %14 = tail call i32 @ff_cbs_insert_unit_content(ptr noundef nonnull %6, i32 noundef -1, i32 noundef 181, ptr noundef nonnull %13, ptr noundef null) #10
  %15 = icmp slt i32 %14, 0
  br i1 %15, label %vaapi_encode_mpeg2_add_header.exit25.thread, label %vaapi_encode_mpeg2_add_header.exit25

vaapi_encode_mpeg2_add_header.exit25.thread:      ; preds = %vaapi_encode_mpeg2_add_header.exit23
  tail call void (ptr, i32, ptr, ...) @av_log(ptr noundef nonnull %0, i32 noundef 16, ptr noundef nonnull @.str.64, i32 noundef 181) #10
  br label %vaapi_encode_mpeg2_write_fragment.exit

vaapi_encode_mpeg2_add_header.exit25:             ; preds = %vaapi_encode_mpeg2_add_header.exit23
  %16 = getelementptr inbounds nuw i8, ptr %5, i64 2704
  %17 = tail call i32 @ff_cbs_insert_unit_content(ptr noundef nonnull %6, i32 noundef -1, i32 noundef 184, ptr noundef nonnull %16, ptr noundef null) #10
  %18 = icmp slt i32 %17, 0
  br i1 %18, label %vaapi_encode_mpeg2_add_header.exit27.thread, label %vaapi_encode_mpeg2_add_header.exit27

vaapi_encode_mpeg2_add_header.exit27.thread:      ; preds = %vaapi_encode_mpeg2_add_header.exit25
  tail call void (ptr, i32, ptr, ...) @av_log(ptr noundef nonnull %0, i32 noundef 16, ptr noundef nonnull @.str.64, i32 noundef 184) #10
  br label %vaapi_encode_mpeg2_write_fragment.exit

vaapi_encode_mpeg2_add_header.exit27:             ; preds = %vaapi_encode_mpeg2_add_header.exit25
  %19 = load ptr, ptr %4, align 8, !tbaa !4
  %20 = getelementptr inbounds nuw i8, ptr %19, i64 3024
  %21 = load ptr, ptr %20, align 8, !tbaa !190
  %22 = tail call i32 @ff_cbs_write_fragment_data(ptr noundef %21, ptr noundef nonnull %6) #10
  %23 = icmp slt i32 %22, 0
  br i1 %23, label %24, label %25

24:                                               ; preds = %vaapi_encode_mpeg2_add_header.exit27
  tail call void (ptr, i32, ptr, ...) @av_log(ptr noundef nonnull %0, i32 noundef 16, ptr noundef nonnull @.str.65) #10
  br label %vaapi_encode_mpeg2_write_fragment.exit

25:                                               ; preds = %vaapi_encode_mpeg2_add_header.exit27
  %26 = load i64, ptr %2, align 8, !tbaa !191
  %27 = getelementptr inbounds nuw i8, ptr %5, i64 3040
  %28 = load i64, ptr %27, align 8, !tbaa !192
  %29 = shl i64 %28, 3
  %30 = getelementptr inbounds nuw i8, ptr %5, i64 3048
  %31 = load i64, ptr %30, align 8, !tbaa !193
  %32 = sub i64 %29, %31
  %33 = icmp ult i64 %26, %32
  br i1 %33, label %34, label %35

34:                                               ; preds = %25
  tail call void (ptr, i32, ptr, ...) @av_log(ptr noundef nonnull %0, i32 noundef 16, ptr noundef nonnull @.str.66, i64 noundef %26, i64 noundef %32) #10
  br label %vaapi_encode_mpeg2_write_fragment.exit

35:                                               ; preds = %25
  %36 = load ptr, ptr %6, align 8, !tbaa !194
  tail call void @llvm.memcpy.p0.p0.i64(ptr align 1 %1, ptr align 1 %36, i64 %28, i1 false)
  %37 = load i64, ptr %27, align 8, !tbaa !192
  %38 = shl i64 %37, 3
  %39 = load i64, ptr %30, align 8, !tbaa !193
  %40 = sub i64 %38, %39
  store i64 %40, ptr %2, align 8, !tbaa !191
  br label %vaapi_encode_mpeg2_write_fragment.exit

vaapi_encode_mpeg2_write_fragment.exit:           ; preds = %35, %34, %24, %vaapi_encode_mpeg2_add_header.exit27.thread, %vaapi_encode_mpeg2_add_header.exit25.thread, %vaapi_encode_mpeg2_add_header.exit23.thread, %vaapi_encode_mpeg2_add_header.exit.thread
  tail call void @ff_cbs_fragment_reset(ptr noundef nonnull %6) #10
  ret i32 0
}